; Function Attrs: nofree norecurse nosync nounwind memory(readwrite, argmem: none, inaccessiblemem: none) uwtable
define hidden void @mi_option_set_enabled(i32 noundef %0, i1 noundef zeroext %1) local_unnamed_addr #4 {
  %3 = zext i1 %1 to i64
  %4 = icmp ugt i32 %0, 35
  br i1 %4, label %mi_option_set.exit, label %.lr.ph.i

.lr.ph.i:                                         ; preds = %2, %.lr.ph.i.backedge
  %.tr14.i = phi i32 [ %.tr14.i.be, %.lr.ph.i.backedge ], [ %0, %2 ]
  %5 = zext nneg i32 %.tr14.i to i64
  %6 = getelementptr inbounds nuw [36 x %struct.mi_option_desc_s], ptr @options, i64 0, i64 %5
  store i64 %3, ptr %6, align 16, !tbaa !14
  %7 = getelementptr inbounds nuw i8, ptr %6, i64 8
  store i32 2, ptr %7, align 8, !tbaa !8
  %8 = getelementptr inbounds nuw i8, ptr %6, i64 12
  %9 = load i32, ptr %8, align 4, !tbaa !22
  switch i32 %9, label %mi_option_set.exit [
    i32 30, label %10
    i32 31, label %13
  ]

10:                                               ; preds = %.lr.ph.i
  %11 = load i64, ptr getelementptr inbounds nuw (i8, ptr @options, i64 992), align 16, !tbaa !14
  %12 = icmp slt i64 %11, %3
  br i1 %12, label %.lr.ph.i.backedge, label %mi_option_set.exit

13:                                               ; preds = %.lr.ph.i
  %14 = load i64, ptr getelementptr inbounds nuw (i8, ptr @options, i64 960), align 16, !tbaa !14
  %15 = icmp sgt i64 %14, %3
  br i1 %15, label %.lr.ph.i.backedge, label %mi_option_set.exit

.lr.ph.i.backedge:                                ; preds = %13, %10
  %.tr14.i.be = phi i32 [ 31, %10 ], [ 30, %13 ]
  br label %.lr.ph.i

mi_option_set.exit:                               ; preds = %.lr.ph.i, %10, %13, %2
  ret void
}